; Function Attrs: mustprogress uwtable
define noundef nonnull align 8 dereferenceable(40) ptr @_ZNK32pxrInternal_v0_24__pxrReserved__20UsdSkelSkeletonQuery11GetTopologyEv(ptr nocapture noundef nonnull readonly align 8 dereferenceable(80) %0) local_unnamed_addr #0 align 2 personality ptr @__gxx_personality_v0 {
  %2 = alloca %"class.pxrInternal_v0_24__pxrReserved__::TfCallContext", align 8
  %3 = alloca %"class.pxrInternal_v0_24__pxrReserved__::TfCallContext", align 8
  %4 = load ptr, ptr %0, align 8
  %.not.i.i.not = icmp eq ptr %4, null
  br i1 %.not.i.i.not, label %5, label %.critedge.thread

.critedge.thread:                                 ; preds = %1
  call void @llvm.lifetime.start.p0(i64 40, ptr nonnull %2)
  br label %_ZNK32pxrInternal_v0_24__pxrReserved__8TfRefPtrINS_22UsdSkel_SkelDefinitionEEptEv.exit

5:                                                ; preds = %1
  store ptr @.str.2, ptr %3, align 8
  %6 = getelementptr inbounds nuw i8, ptr %3, i64 8
  store ptr @__func__._ZNK32pxrInternal_v0_24__pxrReserved__20UsdSkelSkeletonQuery11GetTopologyEv, ptr %6, align 8
  %7 = getelementptr inbounds nuw i8, ptr %3, i64 16
  store i64 421, ptr %7, align 8
  %8 = getelementptr inbounds nuw i8, ptr %3, i64 24
  store ptr @__PRETTY_FUNCTION__._ZNK32pxrInternal_v0_24__pxrReserved__20UsdSkelSkeletonQuery11GetTopologyEv, ptr %8, align 8
  %9 = getelementptr inbounds nuw i8, ptr %3, i64 32
  store i8 0, ptr %9, align 8
  %10 = tail call noundef ptr (ptr, ...) @_ZN32pxrInternal_v0_24__pxrReserved__21Tf_VerifyStringFormatEPKcz(ptr noundef nonnull @.str.5)
  %11 = call noundef zeroext i1 @_ZN32pxrInternal_v0_24__pxrReserved__21Tf_FailedVerifyHelperERKNS_13TfCallContextEPKcS4_(ptr noundef nonnull align 8 dereferenceable(33) %3, ptr noundef nonnull @.str.4, ptr noundef %10)
  br i1 %11, label %.critedge, label %19

.critedge:                                        ; preds = %5
  %.pr = load ptr, ptr %0, align 8
  call void @llvm.lifetime.start.p0(i64 40, ptr nonnull %2)
  %.not.i = icmp eq ptr %.pr, null
  br i1 %.not.i, label %12, label %_ZNK32pxrInternal_v0_24__pxrReserved__8TfRefPtrINS_22UsdSkel_SkelDefinitionEEptEv.exit

12:                                               ; preds = %.critedge
  store ptr @.str.28, ptr %2, align 8
  %13 = getelementptr inbounds nuw i8, ptr %2, i64 8
  store ptr @__func__._ZNK32pxrInternal_v0_24__pxrReserved__8TfRefPtrINS_22UsdSkel_SkelDefinitionEEptEv, ptr %13, align 8
  %14 = getelementptr inbounds nuw i8, ptr %2, i64 16
  store i64 936, ptr %14, align 8
  %15 = getelementptr inbounds nuw i8, ptr %2, i64 24
  store ptr @__PRETTY_FUNCTION__._ZNK32pxrInternal_v0_24__pxrReserved__8TfRefPtrINS_22UsdSkel_SkelDefinitionEEptEv, ptr %15, align 8
  %16 = getelementptr inbounds nuw i8, ptr %2, i64 32
  store i8 0, ptr %16, align 8
  call void @_ZN32pxrInternal_v0_24__pxrReserved__40Tf_PostNullSmartPtrDereferenceFatalErrorERKNS_13TfCallContextEPKc(ptr noundef nonnull align 8 dereferenceable(33) %2, ptr noundef nonnull @_ZTSN32pxrInternal_v0_24__pxrReserved__8TfRefPtrINS_22UsdSkel_SkelDefinitionEEE) #16
  unreachable

_ZNK32pxrInternal_v0_24__pxrReserved__8TfRefPtrINS_22UsdSkel_SkelDefinitionEEptEv.exit: ; preds = %.critedge.thread, %.critedge
  %17 = phi ptr [ %4, %.critedge.thread ], [ %.pr, %.critedge ]
  call void @llvm.lifetime.end.p0(i64 40, ptr nonnull %2)
  %18 = getelementptr inbounds nuw i8, ptr %17, i64 88
  br label %28

19:                                               ; preds = %5
  %20 = load atomic i8, ptr @_ZGVZNK32pxrInternal_v0_24__pxrReserved__20UsdSkelSkeletonQuery11GetTopologyEvE4null acquire, align 8
  %21 = icmp eq i8 %20, 0
  br i1 %21, label %22, label %28, !prof !23

22:                                               ; preds = %19
  %23 = call i32 @__cxa_guard_acquire(ptr nonnull @_ZGVZNK32pxrInternal_v0_24__pxrReserved__20UsdSkelSkeletonQuery11GetTopologyEvE4null) #15
  %.not = icmp eq i32 %23, 0
  br i1 %.not, label %28, label %24

24:                                               ; preds = %22
  call void @llvm.memset.p0.i64(ptr noundef nonnull align 8 dereferenceable(40) @_ZZNK32pxrInternal_v0_24__pxrReserved__20UsdSkelSkeletonQuery11GetTopologyEvE4null, i8 0, i64 40, i1 false)
  invoke void @_ZN32pxrInternal_v0_24__pxrReserved__7VtArrayIiEC1Ev(ptr noundef nonnull align 8 dereferenceable(40) @_ZZNK32pxrInternal_v0_24__pxrReserved__20UsdSkelSkeletonQuery11GetTopologyEvE4null)
          to label %_ZN32pxrInternal_v0_24__pxrReserved__15UsdSkelTopologyC2Ev.exit unwind label %26

_ZN32pxrInternal_v0_24__pxrReserved__15UsdSkelTopologyC2Ev.exit: ; preds = %24
  %25 = call i32 @__cxa_atexit(ptr nonnull @_ZN32pxrInternal_v0_24__pxrReserved__15UsdSkelTopologyD2Ev, ptr nonnull @_ZZNK32pxrInternal_v0_24__pxrReserved__20UsdSkelSkeletonQuery11GetTopologyEvE4null, ptr nonnull @__dso_handle) #15
  call void @__cxa_guard_release(ptr nonnull @_ZGVZNK32pxrInternal_v0_24__pxrReserved__20UsdSkelSkeletonQuery11GetTopologyEvE4null) #15
  br label %28

26:                                               ; preds = %24
  %27 = landingpad { ptr, i32 }
          cleanup
  call void @__cxa_guard_abort(ptr nonnull @_ZGVZNK32pxrInternal_v0_24__pxrReserved__20UsdSkelSkeletonQuery11GetTopologyEvE4null) #15
  resume { ptr, i32 } %27

28:                                               ; preds = %19, %22, %_ZN32pxrInternal_v0_24__pxrReserved__15UsdSkelTopologyC2Ev.exit, %_ZNK32pxrInternal_v0_24__pxrReserved__8TfRefPtrINS_22UsdSkel_SkelDefinitionEEptEv.exit
  %.0 = phi ptr [ %18, %_ZNK32pxrInternal_v0_24__pxrReserved__8TfRefPtrINS_22UsdSkel_SkelDefinitionEEptEv.exit ], [ @_ZZNK32pxrInternal_v0_24__pxrReserved__20UsdSkelSkeletonQuery11GetTopologyEvE4null, %_ZN32pxrInternal_v0_24__pxrReserved__15UsdSkelTopologyC2Ev.exit ], [ @_ZZNK32pxrInternal_v0_24__pxrReserved__20UsdSkelSkeletonQuery11GetTopologyEvE4null, %22 ], [ @_ZZNK32pxrInternal_v0_24__pxrReserved__20UsdSkelSkeletonQuery11GetTopologyEvE4null, %19 ]
  ret ptr %.0
}